; Function Attrs: mustprogress nofree norecurse nosync nounwind willreturn memory(read, inaccessiblemem: none) uwtable
define hidden noundef ptr @_ZN11PhaseOutput14sv_for_node_idEP13GrowableArrayIP10ScopeValueEi(ptr nocapture noundef readonly %0, i32 noundef %1) local_unnamed_addr #4 align 2 {
  %3 = load i32, ptr %0, align 4
  %4 = icmp sgt i32 %3, 0
  br i1 %4, label %.lr.ph, label %._crit_edge

.lr.ph:                                           ; preds = %2
  %5 = getelementptr inbounds i8, ptr %0, i64 8
  %6 = load ptr, ptr %5, align 8
  %wide.trip.count = zext nneg i32 %3 to i64
  br label %8

7:                                                ; preds = %8
  %indvars.iv.next = add nuw nsw i64 %indvars.iv, 1
  %exitcond.not = icmp eq i64 %indvars.iv.next, %wide.trip.count
  br i1 %exitcond.not, label %._crit_edge, label %8, !llvm.loop !23

8:                                                ; preds = %.lr.ph, %7
  %indvars.iv = phi i64 [ 0, %.lr.ph ], [ %indvars.iv.next, %7 ]
  %9 = getelementptr inbounds ptr, ptr %6, i64 %indvars.iv
  %10 = load ptr, ptr %9, align 8
  %11 = getelementptr inbounds i8, ptr %10, i64 8
  %12 = load i32, ptr %11, align 8
  %13 = icmp eq i32 %12, %1
  br i1 %13, label %._crit_edge, label %7

._crit_edge:                                      ; preds = %8, %7, %2
  %.0 = phi ptr [ null, %2 ], [ null, %7 ], [ %10, %8 ]
  ret ptr %.0
}